target datalayout = "e-m:e-p270:32:32-p271:32:32-p272:64:64-i64:64-i128:128-f80:128-n8:16:32:64-S128"
target triple = "x86_64-pc-linux-gnu"

; Function Attrs: mustprogress nounwind uwtable
define hidden noundef i32 @_Z5u_gcdjj(i32 noundef %0, i32 noundef %1) #4 {
  %3 = alloca i32, align 4
  %4 = alloca i32, align 4
  %5 = alloca i32, align 4
  %6 = alloca i32, align 4
  %7 = alloca i32, align 4
  %8 = alloca i32, align 4
  %9 = alloca i32, align 4
  store i32 %0, ptr %4, align 4, !tbaa !3
  store i32 %1, ptr %5, align 4, !tbaa !3
  %10 = load i32, ptr %4, align 4, !tbaa !3
  %11 = icmp eq i32 %10, 0
  br i1 %11, label %12, label %14

12:                                               ; preds = %2
  %13 = load i32, ptr %5, align 4, !tbaa !3
  store i32 %13, ptr %3, align 4
  br label %72

14:                                               ; preds = %2
  %15 = load i32, ptr %5, align 4, !tbaa !3
  %16 = icmp eq i32 %15, 0
  br i1 %16, label %17, label %19

17:                                               ; preds = %14
  %18 = load i32, ptr %4, align 4, !tbaa !3
  store i32 %18, ptr %3, align 4
  br label %72

19:                                               ; preds = %14
  call void @llvm.lifetime.start.p0(i64 4, ptr %6) #3
  %20 = load i32, ptr %4, align 4, !tbaa !3
  %21 = load i32, ptr %5, align 4, !tbaa !3
  %22 = or i32 %20, %21
  %23 = call i32 @llvm.cttz.i32(i32 %22, i1 true)
  store i32 %23, ptr %6, align 4, !tbaa !3
  %24 = load i32, ptr %4, align 4, !tbaa !3
  %25 = call i32 @llvm.cttz.i32(i32 %24, i1 true)
  %26 = load i32, ptr %4, align 4, !tbaa !3
  %27 = lshr i32 %26, %25
  store i32 %27, ptr %4, align 4, !tbaa !3
  %28 = load i32, ptr %4, align 4, !tbaa !3
  %29 = icmp eq i32 %28, 1
  br i1 %29, label %33, label %30

30:                                               ; preds = %19
  %31 = load i32, ptr %5, align 4, !tbaa !3
  %32 = icmp eq i32 %31, 1
  br i1 %32, label %33, label %36

33:                                               ; preds = %30, %19
  %34 = load i32, ptr %6, align 4, !tbaa !3
  %35 = shl i32 1, %34
  store i32 %35, ptr %3, align 4
  store i32 1, ptr %7, align 4
  br label %71

36:                                               ; preds = %30
  %37 = load i32, ptr %4, align 4, !tbaa !3
  %38 = load i32, ptr %5, align 4, !tbaa !3
  %39 = icmp eq i32 %37, %38
  br i1 %39, label %40, label %44

40:                                               ; preds = %36
  %41 = load i32, ptr %4, align 4, !tbaa !3
  %42 = load i32, ptr %6, align 4, !tbaa !3
  %43 = shl i32 %41, %42
  store i32 %43, ptr %3, align 4
  store i32 1, ptr %7, align 4
  br label %71

44:                                               ; preds = %36
  br label %45

45:                                               ; preds = %64, %44
  %46 = load i32, ptr %5, align 4, !tbaa !3
  %47 = call i32 @llvm.cttz.i32(i32 %46, i1 true)
  %48 = load i32, ptr %5, align 4, !tbaa !3
  %49 = lshr i32 %48, %47
  store i32 %49, ptr %5, align 4, !tbaa !3
  call void @llvm.lifetime.start.p0(i64 4, ptr %8) #3
  %50 = load i32, ptr %4, align 4, !tbaa !3
  %51 = load i32, ptr %5, align 4, !tbaa !3
  %52 = sub i32 %50, %51
  store i32 %52, ptr %8, align 4, !tbaa !3
  call void @llvm.lifetime.start.p0(i64 4, ptr %9) #3
  %53 = load i32, ptr %8, align 4, !tbaa !3
  %54 = load i32, ptr %8, align 4, !tbaa !3
  %55 = ashr i32 %54, 31
  %56 = and i32 %53, %55
  store i32 %56, ptr %9, align 4, !tbaa !3
  %57 = load i32, ptr %5, align 4, !tbaa !3
  %58 = load i32, ptr %9, align 4, !tbaa !3
  %59 = add i32 %57, %58
  store i32 %59, ptr %4, align 4, !tbaa !3
  %60 = load i32, ptr %8, align 4, !tbaa !3
  %61 = load i32, ptr %9, align 4, !tbaa !3
  %62 = mul i32 2, %61
  %63 = sub i32 %60, %62
  store i32 %63, ptr %5, align 4, !tbaa !3
  call void @llvm.lifetime.end.p0(i64 4, ptr %9) #3
  call void @llvm.lifetime.end.p0(i64 4, ptr %8) #3
  br label %64

64:                                               ; preds = %45
  %65 = load i32, ptr %5, align 4, !tbaa !3
  %66 = icmp ne i32 %65, 0
  br i1 %66, label %45, label %67, !llvm.loop !11

67:                                               ; preds = %64
  %68 = load i32, ptr %4, align 4, !tbaa !3
  %69 = load i32, ptr %6, align 4, !tbaa !3
  %70 = shl i32 %68, %69
  store i32 %70, ptr %3, align 4
  store i32 1, ptr %7, align 4
  br label %71

71:                                               ; preds = %67, %40, %33
  call void @llvm.lifetime.end.p0(i64 4, ptr %6) #3
  br label %72

72:                                               ; preds = %71, %17, %12
  %73 = load i32, ptr %3, align 4
  ret i32 %73
}