; Function Attrs: mustprogress nofree norecurse nosync nounwind willreturn memory(none) uwtable
define hidden noundef i32 @_Z5u_gcdjj(i32 noundef %0, i32 noundef %1) local_unnamed_addr #3 {
  %3 = icmp eq i32 %0, 0
  br i1 %3, label %22, label %4

4:                                                ; preds = %2
  %5 = icmp eq i32 %1, 0
  br i1 %5, label %22, label %6

6:                                                ; preds = %4
  %7 = or i32 %1, %0
  %8 = tail call range(i32 0, 33) i32 @llvm.cttz.i32(i32 %7, i1 true)
  %9 = tail call range(i32 0, 33) i32 @llvm.cttz.i32(i32 %0, i1 true)
  %10 = lshr i32 %0, %9
  %11 = icmp eq i32 %10, 1
  %12 = icmp eq i32 %1, 1
  %or.cond = or i1 %12, %11
  br i1 %or.cond, label %.loopexit, label %13

13:                                               ; preds = %6
  %14 = icmp eq i32 %10, %1
  br i1 %14, label %.loopexit, label %.preheader

.preheader:                                       ; preds = %13, %.preheader
  %.031 = phi i32 [ %21, %.preheader ], [ %1, %13 ]
  %.030 = phi i32 [ %19, %.preheader ], [ %10, %13 ]
  %15 = tail call range(i32 0, 33) i32 @llvm.cttz.i32(i32 %.031, i1 true)
  %16 = lshr i32 %.031, %15
  %17 = sub i32 %.030, %16
  %18 = tail call i32 @llvm.smin.i32(i32 %17, i32 0)
  %19 = add i32 %18, %16
  %20 = shl i32 %18, 1
  %21 = sub i32 %17, %20
  %.not = icmp eq i32 %21, 0
  br i1 %.not, label %.loopexit, label %.preheader, !llvm.loop !5

.loopexit:                                        ; preds = %.preheader, %13, %6
  %.pn = phi i32 [ 1, %6 ], [ %1, %13 ], [ %19, %.preheader ]
  %.1 = shl i32 %.pn, %8
  br label %22

22:                                               ; preds = %4, %2, %.loopexit
  %.0 = phi i32 [ %.1, %.loopexit ], [ %1, %2 ], [ %0, %4 ]
  ret i32 %.0
}